target datalayout = "e-m:e-p270:32:32-p271:32:32-p272:64:64-i64:64-i128:128-f80:128-n8:16:32:64-S128"
target triple = "x86_64-pc-linux-gnu"

%struct.hb_object_header_t = type { %struct.hb_reference_count_t, %struct.hb_atomic_int_t, %struct.hb_atomic_ptr_t }
%struct.hb_reference_count_t = type { %struct.hb_atomic_int_t }
%struct.hb_atomic_int_t = type { i32 }
%struct.hb_atomic_ptr_t = type { ptr }
%struct.hb_draw_funcs_t = type { %struct.hb_object_header_t, %struct.anon.156, ptr, ptr }
%struct.anon.156 = type { ptr, ptr, ptr, ptr, ptr }
%struct.hb_font_draw_glyph_default_adaptor_t = type { ptr, ptr, float, float, float }
%struct.hb_draw_state_t = type { i32, float, float, float, float, %union._hb_var_num_t, %union._hb_var_num_t, %union._hb_var_num_t, %union._hb_var_num_t, %union._hb_var_num_t, %union._hb_var_num_t, %union._hb_var_num_t }
%union._hb_var_num_t = type { float }
%struct.anon.157 = type { ptr, ptr, ptr, ptr, ptr }

; Function Attrs: mustprogress uwtable
define linkonce_odr hidden void @_ZN15hb_draw_funcs_t12emit_line_toEPvR15hb_draw_state_tff(ptr noundef nonnull align 8 dereferenceable(72) %0, ptr noundef %1, ptr noundef nonnull align 4 dereferenceable(48) %2, float noundef %3, float noundef %4) #0 comdat align 2 {
  %6 = alloca ptr, align 8
  %7 = alloca ptr, align 8
  %8 = alloca ptr, align 8
  %9 = alloca float, align 4
  %10 = alloca float, align 4
  store ptr %0, ptr %6, align 8
  store ptr %1, ptr %7, align 8
  store ptr %2, ptr %8, align 8
  store float %3, ptr %9, align 4
  store float %4, ptr %10, align 4
  %11 = load ptr, ptr %6, align 8
  %12 = getelementptr inbounds %struct.hb_draw_funcs_t, ptr %11, i32 0, i32 1
  %13 = getelementptr inbounds %struct.anon.156, ptr %12, i32 0, i32 1
  %14 = load ptr, ptr %13, align 8
  %15 = load ptr, ptr %7, align 8
  %16 = load ptr, ptr %8, align 8
  %17 = load float, ptr %9, align 4
  %18 = load float, ptr %10, align 4
  %19 = getelementptr inbounds %struct.hb_draw_funcs_t, ptr %11, i32 0, i32 2
  %20 = load ptr, ptr %19, align 8
  %21 = icmp ne ptr %20, null
  br i1 %21, label %23, label %22

22:                                               ; preds = %5
  br label %28

23:                                               ; preds = %5
  %24 = getelementptr inbounds %struct.hb_draw_funcs_t, ptr %11, i32 0, i32 2
  %25 = load ptr, ptr %24, align 8
  %26 = getelementptr inbounds %struct.anon.157, ptr %25, i32 0, i32 1
  %27 = load ptr, ptr %26, align 8
  br label %28

28:                                               ; preds = %23, %22
  %29 = phi ptr [ null, %22 ], [ %27, %23 ]
  call void %14(ptr noundef %11, ptr noundef %15, ptr noundef %16, float noundef %17, float noundef %18, ptr noundef %29)
  ret void
}

; Function Attrs: mustprogress uwtable
define internal void @_ZL23hb_draw_line_to_defaultP15hb_draw_funcs_tPvP15hb_draw_state_tffS1_(ptr noundef %0, ptr noundef %1, ptr noundef %2, float noundef %3, float noundef %4, ptr noundef %5) #0 {
  %7 = alloca ptr, align 8
  %8 = alloca ptr, align 8
  %9 = alloca ptr, align 8
  %10 = alloca float, align 4
  %11 = alloca float, align 4
  %12 = alloca ptr, align 8
  %13 = alloca ptr, align 8
  %14 = alloca float, align 4
  %15 = alloca float, align 4
  %16 = alloca float, align 4
  store ptr %0, ptr %7, align 8
  store ptr %1, ptr %8, align 8
  store ptr %2, ptr %9, align 8
  store float %3, ptr %10, align 4
  store float %4, ptr %11, align 4
  store ptr %5, ptr %12, align 8
  %17 = load ptr, ptr %8, align 8
  store ptr %17, ptr %13, align 8
  %18 = load ptr, ptr %13, align 8
  %19 = getelementptr inbounds %struct.hb_font_draw_glyph_default_adaptor_t, ptr %18, i32 0, i32 2
  %20 = load float, ptr %19, align 8
  store float %20, ptr %14, align 4
  %21 = load ptr, ptr %13, align 8
  %22 = getelementptr inbounds %struct.hb_font_draw_glyph_default_adaptor_t, ptr %21, i32 0, i32 3
  %23 = load float, ptr %22, align 4
  store float %23, ptr %15, align 4
  %24 = load ptr, ptr %13, align 8
  %25 = getelementptr inbounds %struct.hb_font_draw_glyph_default_adaptor_t, ptr %24, i32 0, i32 4
  %26 = load float, ptr %25, align 8
  store float %26, ptr %16, align 4
  %27 = load ptr, ptr %9, align 8
  %28 = getelementptr inbounds %struct.hb_draw_state_t, ptr %27, i32 0, i32 3
  %29 = load float, ptr %28, align 4
  %30 = load float, ptr %14, align 4
  %31 = load ptr, ptr %9, align 8
  %32 = getelementptr inbounds %struct.hb_draw_state_t, ptr %31, i32 0, i32 4
  %33 = load float, ptr %32, align 4
  %34 = load float, ptr %16, align 4
  %35 = fmul float %33, %34
  %36 = call float @llvm.fmuladd.f32(float %29, float %30, float %35)
  %37 = load ptr, ptr %9, align 8
  %38 = getelementptr inbounds %struct.hb_draw_state_t, ptr %37, i32 0, i32 3
  store float %36, ptr %38, align 4
  %39 = load ptr, ptr %9, align 8
  %40 = getelementptr inbounds %struct.hb_draw_state_t, ptr %39, i32 0, i32 4
  %41 = load float, ptr %40, align 4
  %42 = load float, ptr %15, align 4
  %43 = fmul float %41, %42
  %44 = load ptr, ptr %9, align 8
  %45 = getelementptr inbounds %struct.hb_draw_state_t, ptr %44, i32 0, i32 4
  store float %43, ptr %45, align 4
  %46 = load ptr, ptr %13, align 8
  %47 = getelementptr inbounds %struct.hb_font_draw_glyph_default_adaptor_t, ptr %46, i32 0, i32 0
  %48 = load ptr, ptr %47, align 8
  %49 = load ptr, ptr %13, align 8
  %50 = getelementptr inbounds %struct.hb_font_draw_glyph_default_adaptor_t, ptr %49, i32 0, i32 1
  %51 = load ptr, ptr %50, align 8
  %52 = load ptr, ptr %9, align 8
  %53 = load float, ptr %14, align 4
  %54 = load float, ptr %10, align 4
  %55 = load float, ptr %16, align 4
  %56 = load float, ptr %11, align 4
  %57 = fmul float %55, %56
  %58 = call float @llvm.fmuladd.f32(float %53, float %54, float %57)
  %59 = load float, ptr %15, align 4
  %60 = load float, ptr %11, align 4
  %61 = fmul float %59, %60
  call void @_ZN15hb_draw_funcs_t12emit_line_toEPvR15hb_draw_state_tff(ptr noundef nonnull align 8 dereferenceable(72) %48, ptr noundef %51, ptr noundef nonnull align 4 dereferenceable(48) %52, float noundef %58, float noundef %61)
  ret void
}