; Function Attrs: mustprogress uwtable
define internal void @_ZL23hb_draw_line_to_defaultP15hb_draw_funcs_tPvP15hb_draw_state_tffS1_(ptr nocapture readnone %0, ptr nocapture noundef readonly %1, ptr noundef %2, float noundef %3, float noundef %4, ptr nocapture readnone %5) #1 {
  %7 = getelementptr inbounds i8, ptr %1, i64 16
  %8 = load float, ptr %7, align 8
  %9 = getelementptr inbounds i8, ptr %1, i64 20
  %10 = load float, ptr %9, align 4
  %11 = getelementptr inbounds i8, ptr %1, i64 24
  %12 = load float, ptr %11, align 8
  %13 = getelementptr inbounds i8, ptr %2, i64 12
  %14 = load float, ptr %13, align 4
  %15 = getelementptr inbounds i8, ptr %2, i64 16
  %16 = load float, ptr %15, align 4
  %17 = fmul float %12, %16
  %18 = tail call float @llvm.fmuladd.f32(float %14, float %8, float %17)
  store float %18, ptr %13, align 4
  %19 = fmul float %10, %16
  store float %19, ptr %15, align 4
  %20 = load ptr, ptr %1, align 8
  %21 = getelementptr inbounds i8, ptr %1, i64 8
  %22 = load ptr, ptr %21, align 8
  %23 = getelementptr inbounds i8, ptr %20, i64 24
  %24 = load ptr, ptr %23, align 8
  %25 = getelementptr inbounds i8, ptr %20, i64 56
  %26 = load ptr, ptr %25, align 8
  %.not.i = icmp eq ptr %26, null
  br i1 %.not.i, label %_ZN15hb_draw_funcs_t12emit_line_toEPvR15hb_draw_state_tff.exit, label %27

27:                                               ; preds = %6
  %28 = getelementptr inbounds i8, ptr %26, i64 8
  %29 = load ptr, ptr %28, align 8
  br label %_ZN15hb_draw_funcs_t12emit_line_toEPvR15hb_draw_state_tff.exit

_ZN15hb_draw_funcs_t12emit_line_toEPvR15hb_draw_state_tff.exit: ; preds = %6, %27
  %30 = phi ptr [ %29, %27 ], [ null, %6 ]
  %31 = fmul float %10, %4
  %32 = fmul float %12, %4
  %33 = tail call float @llvm.fmuladd.f32(float %8, float %3, float %32)
  tail call void %24(ptr noundef nonnull %20, ptr noundef %22, ptr noundef nonnull %2, float noundef %33, float noundef %31, ptr noundef %30)
  ret void
}